; Function Attrs: nounwind uwtable
define void @av_image_copy_plane_uc_from(ptr noundef writeonly captures(address_is_null) %0, i64 noundef %1, ptr noundef readonly captures(address_is_null) %2, i64 noundef %3, i64 noundef %4, i32 noundef %5) #3 {
  %7 = icmp ne ptr %0, null
  %8 = icmp ne ptr %2, null
  %or.cond.i = and i1 %7, %8
  br i1 %or.cond.i, label %9, label %image_copy_plane.exit

9:                                                ; preds = %6
  %10 = tail call i64 @llvm.abs.i64(i64 %3, i1 true)
  %.not.i = icmp slt i64 %10, %4
  br i1 %.not.i, label %11, label %12

11:                                               ; preds = %9
  tail call void (ptr, i32, ptr, ...) @av_log(ptr noundef null, i32 noundef 0, ptr noundef nonnull @.str.3, ptr noundef nonnull @.str.8, ptr noundef nonnull @.str.5, i32 noundef 350) #11
  tail call void @abort() #13
  unreachable

12:                                               ; preds = %9
  %13 = tail call i64 @llvm.abs.i64(i64 %1, i1 true)
  %.not24.i = icmp slt i64 %13, %4
  br i1 %.not24.i, label %15, label %.preheader.i

.preheader.i:                                     ; preds = %12
  %14 = icmp sgt i32 %5, 0
  br i1 %14, label %.lr.ph.i, label %image_copy_plane.exit

15:                                               ; preds = %12
  tail call void (ptr, i32, ptr, ...) @av_log(ptr noundef null, i32 noundef 0, ptr noundef nonnull @.str.3, ptr noundef nonnull @.str.9, ptr noundef nonnull @.str.5, i32 noundef 351) #11
  tail call void @abort() #13
  unreachable

.lr.ph.i:                                         ; preds = %.preheader.i, %.lr.ph.i
  %.027.i = phi i32 [ %18, %.lr.ph.i ], [ %5, %.preheader.i ]
  %.01926.i = phi ptr [ %16, %.lr.ph.i ], [ %0, %.preheader.i ]
  %.02025.i = phi ptr [ %17, %.lr.ph.i ], [ %2, %.preheader.i ]
  tail call void @llvm.memcpy.p0.p0.i64(ptr align 1 %.01926.i, ptr align 1 %.02025.i, i64 %4, i1 false)
  %16 = getelementptr inbounds i8, ptr %.01926.i, i64 %1
  %17 = getelementptr inbounds i8, ptr %.02025.i, i64 %3
  %18 = add nsw i32 %.027.i, -1
  %19 = icmp samesign ugt i32 %.027.i, 1
  br i1 %19, label %.lr.ph.i, label %image_copy_plane.exit, !llvm.loop !36

image_copy_plane.exit:                            ; preds = %.lr.ph.i, %6, %.preheader.i
  ret void
}